{
   <insert_a_suppression_name_here>
   Memcheck:Leak
   match-leak-kinds: reachable
   fun:malloc
   obj:/usr/lib64/libgomp.so.1.0.0
   obj:/usr/lib64/libgomp.so.1.0.0
   obj:/usr/lib64/libgomp.so.1.0.0
   fun:_dl_init
   obj:/usr/lib64/ld-2.17.so
}
{
   <insert_a_suppression_name_here>
   Memcheck:Leak
   match-leak-kinds: reachable
   fun:malloc
   fun:_ZN2os6mallocEm10MemoryTypeRK15NativeCallStack
   fun:_ZN20GenericGrowableArray12raw_allocateEi
   fun:_GLOBAL__sub_I_jvmtiRawMonitor.cpp
   fun:_dl_init
   obj:/usr/lib64/ld-2.17.so
}
{
   <insert_a_suppression_name_here>
   Memcheck:Leak
   match-leak-kinds: reachable
   fun:malloc
   fun:_ZN2os6mallocEm10MemoryTypeRK15NativeCallStack
   fun:_ZN11ResourceObjnwEmNS_15allocation_typeE10MemoryType
   fun:_GLOBAL__sub_I_c1_LinearScan.cpp
   fun:_dl_init
   obj:/usr/lib64/ld-2.17.so
}
{
   <insert_a_suppression_name_here>
   Memcheck:Leak
   match-leak-kinds: reachable
   fun:malloc
   fun:_ZN2os6mallocEm10MemoryTypeRK15NativeCallStack
   fun:_ZN11ResourceObjnwEmNS_15allocation_typeE10MemoryType
   fun:_GLOBAL__sub_I_c1_LinearScan.cpp
   fun:_dl_init
   obj:/usr/lib64/ld-2.17.so
}
{
   <insert_a_suppression_name_here>
   Memcheck:Leak
   match-leak-kinds: reachable
   fun:malloc
   fun:_ZN2os6mallocEm10MemoryTypeRK15NativeCallStack
   fun:_ZN11ResourceObjnwEmNS_15allocation_typeE10MemoryType
   fun:_GLOBAL__sub_I_c1_LinearScan.cpp
   fun:_dl_init
   obj:/usr/lib64/ld-2.17.so
}
{
   <insert_a_suppression_name_here>
   Memcheck:Leak
   match-leak-kinds: reachable
   fun:malloc
   fun:_ZN2os6mallocEm10MemoryTypeRK15NativeCallStack
   fun:_ZN11ResourceObjnwEmNS_15allocation_typeE10MemoryType
   fun:_GLOBAL__sub_I_c1_LinearScan.cpp
   fun:_dl_init
   obj:/usr/lib64/ld-2.17.so
}
{
   <insert_a_suppression_name_here>
   Memcheck:Leak
   match-leak-kinds: reachable
   fun:malloc
   fun:_ZN2os6mallocEm10MemoryTypeRK15NativeCallStack
   fun:_ZN11ResourceObjnwEmNS_15allocation_typeE10MemoryType
   fun:_GLOBAL__sub_I_c1_LinearScan.cpp
   fun:_dl_init
   obj:/usr/lib64/ld-2.17.so
}
{
   <insert_a_suppression_name_here>
   Memcheck:Leak
   match-leak-kinds: reachable
   fun:malloc
   fun:_ZN2os6mallocEm10MemoryTypeRK15NativeCallStack
   fun:_ZN11ResourceObjnwEmNS_15allocation_typeE10MemoryType
   fun:_GLOBAL__sub_I_c1_LinearScan.cpp
   fun:_dl_init
   obj:/usr/lib64/ld-2.17.so
}
{
   <insert_a_suppression_name_here>
   Memcheck:Leak
   match-leak-kinds: reachable
   fun:malloc
   fun:_ZN2os6mallocEm10MemoryTypeRK15NativeCallStack
   fun:_ZN20GenericGrowableArray12raw_allocateEi
   fun:_GLOBAL__sub_I_reflectionUtils.cpp
   fun:_dl_init
   obj:/usr/lib64/ld-2.17.so
}
{
   <insert_a_suppression_name_here>
   Memcheck:Leak
   match-leak-kinds: reachable
   fun:malloc
   fun:_ZN2os6mallocEm10MemoryTypeRK15NativeCallStack
   fun:_ZN11ResourceObjnwEmNS_15allocation_typeE10MemoryType
   fun:_GLOBAL__sub_I_jvmtiRawMonitor.cpp
   fun:_dl_init
   obj:/usr/lib64/ld-2.17.so
}
{
   <insert_a_suppression_name_here>
   Memcheck:Leak
   match-leak-kinds: reachable
   fun:malloc
   fun:_ZN2os6mallocEm10MemoryTypeRK15NativeCallStack
   fun:_ZN11ResourceObjnwEmNS_15allocation_typeE10MemoryType
   fun:_GLOBAL__sub_I_memoryService.cpp
   fun:_dl_init
   obj:/usr/lib64/ld-2.17.so
}
{
   <insert_a_suppression_name_here>
   Memcheck:Leak
   match-leak-kinds: reachable
   fun:malloc
   fun:_ZN2os6mallocEm10MemoryTypeRK15NativeCallStack
   fun:_ZN11ResourceObjnwEmNS_15allocation_typeE10MemoryType
   fun:_GLOBAL__sub_I_memoryService.cpp
   fun:_dl_init
   obj:/usr/lib64/ld-2.17.so
}
{
   <insert_a_suppression_name_here>
   Memcheck:Leak
   match-leak-kinds: reachable
   fun:malloc
   fun:_ZN2os6mallocEm10MemoryTypeRK15NativeCallStack
   fun:_ZN11ResourceObjnwEmNS_15allocation_typeE10MemoryType
   fun:_GLOBAL__sub_I_reflectionUtils.cpp
   fun:_dl_init
   obj:/usr/lib64/ld-2.17.so
}
{
   <insert_a_suppression_name_here>
   Memcheck:Leak
   match-leak-kinds: reachable
   fun:malloc
   fun:_ZN2os6mallocEm10MemoryTypeRK15NativeCallStack
   fun:_ZN20GenericGrowableArray12raw_allocateEi
   fun:_GLOBAL__sub_I_memoryService.cpp
   fun:_dl_init
   obj:/usr/lib64/ld-2.17.so
}
{
   <insert_a_suppression_name_here>
   Memcheck:Leak
   match-leak-kinds: reachable
   fun:malloc
   fun:_ZN2os6mallocEm10MemoryTypeRK15NativeCallStack
   fun:_ZN20GenericGrowableArray12raw_allocateEi
   fun:_GLOBAL__sub_I_memoryService.cpp
   fun:_dl_init
   obj:/usr/lib64/ld-2.17.so
}
{
   <insert_a_suppression_name_here>
   Memcheck:Leak
   match-leak-kinds: reachable
   fun:malloc
   fun:_ZN2os6mallocEm10MemoryTypeRK15NativeCallStack
   fun:_ZN8CHeapObjIL10MemoryType7EEnwEmRK15NativeCallStack
   fun:_ZN8CHeapObjIL10MemoryType7EEnwEm
   fun:_GLOBAL__sub_I_decoder.cpp
   fun:_dl_init
   obj:/usr/lib64/ld-2.17.so
}
{
   <insert_a_suppression_name_here>
   Memcheck:Leak
   match-leak-kinds: reachable
   fun:malloc
   fun:_ZN2os6mallocEm10MemoryTypeRK15NativeCallStack
   fun:_ZN8CHeapObjIL10MemoryType7EEnwEmRK15NativeCallStack
   fun:_ZN8CHeapObjIL10MemoryType7EEnwEm
   fun:_GLOBAL__sub_I_diagnosticFramework.cpp
   fun:_dl_init
   obj:/usr/lib64/ld-2.17.so
}
{
   <insert_a_suppression_name_here>
   Memcheck:Leak
   match-leak-kinds: reachable
   fun:malloc
   fun:_ZN2os6mallocEm10MemoryTypeRK15NativeCallStack
   fun:_ZN8CHeapObjIL10MemoryType7EEnwEmRK15NativeCallStack
   fun:_ZN8CHeapObjIL10MemoryType7EEnwEm
   fun:_GLOBAL__sub_I_g1CollectedHeap.cpp
   fun:_dl_init
   obj:/usr/lib64/ld-2.17.so
}
{
   <insert_a_suppression_name_here>
   Memcheck:Leak
   match-leak-kinds: reachable
   fun:malloc
   fun:_ZN2os6mallocEm10MemoryTypeRK15NativeCallStack
   fun:_ZN8CHeapObjIL10MemoryType7EEnwEmRK15NativeCallStack
   fun:_ZN8CHeapObjIL10MemoryType7EEnwEm
   fun:_GLOBAL__sub_I_jfrThreadSampler.cpp
   fun:_dl_init
   obj:/usr/lib64/ld-2.17.so
}
{
   <insert_a_suppression_name_here>
   Memcheck:Leak
   match-leak-kinds: reachable
   fun:malloc
   fun:_ZN2os6mallocEm10MemoryTypeRK15NativeCallStack
   fun:_ZN8CHeapObjIL10MemoryType7EEnwEmRK15NativeCallStack
   fun:_ZN8CHeapObjIL10MemoryType7EEnwEm
   fun:_GLOBAL__sub_I_metaspace.cpp
   fun:_dl_init
   obj:/usr/lib64/ld-2.17.so
}
{
   <insert_a_suppression_name_here>
   Memcheck:Leak
   match-leak-kinds: reachable
   fun:malloc
   fun:_ZN2os6mallocEm10MemoryTypeRK15NativeCallStack
   fun:_ZN8CHeapObjIL10MemoryType7EEnwEmRK15NativeCallStack
   fun:_ZN8CHeapObjIL10MemoryType7EEnwEm
   fun:_GLOBAL__sub_I_shenandoahParallelCleaning.cpp
   fun:_dl_init
   obj:/usr/lib64/ld-2.17.so
}
{
   <insert_a_suppression_name_here>
   Memcheck:Leak
   match-leak-kinds: reachable
   fun:malloc
   fun:_ZN2os6mallocEm10MemoryTypeRK15NativeCallStack
   fun:_ZN8CHeapObjIL10MemoryType4EEnwEmRK15NativeCallStack
   fun:_ZN8CHeapObjIL10MemoryType4EEnwEm
   fun:_GLOBAL__sub_I_codeCache.cpp
   fun:_dl_init
   obj:/usr/lib64/ld-2.17.so
}
